target datalayout = "e-m:e-p270:32:32-p271:32:32-p272:64:64-i64:64-i128:128-f80:128-n8:16:32:64-S128"
target triple = "x86_64-pc-linux-gnu"

%class.TimerList = type { %"class.std::vector" }
%"class.std::vector" = type { %"struct.std::_Vector_base" }
%"struct.std::_Vector_base" = type { %"struct.std::_Vector_base<TimerGroup, std::allocator<TimerGroup>>::_Vector_impl" }
%"struct.std::_Vector_base<TimerGroup, std::allocator<TimerGroup>>::_Vector_impl" = type { %"struct.std::_Vector_base<TimerGroup, std::allocator<TimerGroup>>::_Vector_impl_data" }
%"struct.std::_Vector_base<TimerGroup, std::allocator<TimerGroup>>::_Vector_impl_data" = type { ptr, ptr, ptr }
%"class.std::__cxx11::basic_string" = type { %"struct.std::__cxx11::basic_string<char>::_Alloc_hider", i64, %union.anon }
%"struct.std::__cxx11::basic_string<char>::_Alloc_hider" = type { ptr }
%union.anon = type { i64, [8 x i8] }
%class.TimerGroup = type { %"class.std::vector.0", %"class.std::__cxx11::basic_string" }
%"class.std::vector.0" = type { %"struct.std::_Vector_base.1" }
%"struct.std::_Vector_base.1" = type { %"struct.std::_Vector_base<Timer, std::allocator<Timer>>::_Vector_impl" }
%"struct.std::_Vector_base<Timer, std::allocator<Timer>>::_Vector_impl" = type { %"struct.std::_Vector_base<Timer, std::allocator<Timer>>::_Vector_impl_data" }
%"struct.std::_Vector_base<Timer, std::allocator<Timer>>::_Vector_impl_data" = type { ptr, ptr, ptr }

; Function Attrs: mustprogress nounwind uwtable
define linkonce_odr noundef nonnull align 8 dereferenceable(56) ptr @_ZNKSt6vectorI10TimerGroupSaIS0_EEixEm(ptr noundef nonnull align 8 dereferenceable(24) %0, i64 noundef %1) #5 comdat align 2 {
  %3 = alloca ptr, align 8
  %4 = alloca i64, align 8
  store ptr %0, ptr %3, align 8
  store i64 %1, ptr %4, align 8
  %5 = load ptr, ptr %3, align 8
  %6 = getelementptr inbounds nuw %"struct.std::_Vector_base", ptr %5, i32 0, i32 0
  %7 = getelementptr inbounds nuw %"struct.std::_Vector_base<TimerGroup, std::allocator<TimerGroup>>::_Vector_impl_data", ptr %6, i32 0, i32 0
  %8 = load ptr, ptr %7, align 8
  %9 = load i64, ptr %4, align 8
  %10 = getelementptr inbounds %class.TimerGroup, ptr %8, i64 %9
  ret ptr %10
}

; Function Attrs: mustprogress uwtable
define noundef zeroext i1 @_ZNK9TimerList4UsedEv(ptr noundef nonnull align 8 dereferenceable(24) %0) #4 align 2 {
  %2 = alloca i1, align 1
  %3 = alloca ptr, align 8
  %4 = alloca i32, align 4
  store ptr %0, ptr %3, align 8
  %5 = load ptr, ptr %3, align 8
  store i32 0, ptr %4, align 4
  br label %6

6:                                                ; preds = %17, %1
  %7 = load i32, ptr %4, align 4
  %8 = icmp ult i32 %7, 10
  br i1 %8, label %9, label %20

9:                                                ; preds = %6
  %10 = getelementptr inbounds nuw %class.TimerList, ptr %5, i32 0, i32 0
  %11 = load i32, ptr %4, align 4
  %12 = zext i32 %11 to i64
  %13 = call noundef nonnull align 8 dereferenceable(56) ptr @_ZNKSt6vectorI10TimerGroupSaIS0_EEixEm(ptr noundef nonnull align 8 dereferenceable(24) %10, i64 noundef %12) #3
  %14 = call noundef zeroext i1 @_ZNK10TimerGroup4UsedEv(ptr noundef nonnull align 8 dereferenceable(56) %13)
  br i1 %14, label %15, label %16

15:                                               ; preds = %9
  store i1 true, ptr %2, align 1
  br label %21

16:                                               ; preds = %9
  br label %17

17:                                               ; preds = %16
  %18 = load i32, ptr %4, align 4
  %19 = add i32 %18, 1
  store i32 %19, ptr %4, align 4
  br label %6, !llvm.loop !4

20:                                               ; preds = %6
  store i1 false, ptr %2, align 1
  br label %21

21:                                               ; preds = %20, %15
  %22 = load i1, ptr %2, align 1
  ret i1 %22
}