; Function Attrs: mustprogress uwtable
define noundef zeroext i1 @_ZNK9TimerList4UsedEv(ptr noundef nonnull readonly align 8 captures(none) dereferenceable(24) %0) local_unnamed_addr #3 align 2 {
  br label %2

2:                                                ; preds = %2, %1
  %indvars.iv = phi i64 [ 0, %1 ], [ %indvars.iv.next, %2 ]
  %3 = load ptr, ptr %0, align 8
  %4 = getelementptr inbounds nuw %class.TimerGroup, ptr %3, i64 %indvars.iv
  %5 = tail call noundef zeroext i1 @_ZNK10TimerGroup4UsedEv(ptr noundef nonnull align 8 dereferenceable(56) %4)
  %indvars.iv.next = add nuw nsw i64 %indvars.iv, 1
  %exitcond.not = icmp eq i64 %indvars.iv.next, 10
  %or.cond = select i1 %5, i1 true, i1 %exitcond.not
  br i1 %or.cond, label %6, label %2, !llvm.loop !6

6:                                                ; preds = %2
  ret i1 %5
}